; Function Attrs: mustprogress nofree norecurse nosync nounwind willreturn memory(read, inaccessiblemem: none) uwtable
define noundef ptr @_ZNK6icu_7713DecimalFormat21getCurrencyPluralInfoEv(ptr noundef nonnull readonly align 8 captures(none) dereferenceable(72) %0) unnamed_addr #13 align 2 {
  %2 = getelementptr inbounds nuw i8, ptr %0, i64 64
  %3 = load ptr, ptr %2, align 8, !tbaa !25
  %4 = icmp eq ptr %3, null
  br i1 %4, label %8, label %5

5:                                                ; preds = %1
  %6 = getelementptr inbounds nuw i8, ptr %3, i64 56
  %7 = load ptr, ptr %6, align 8, !tbaa !109
  br label %8

8:                                                ; preds = %1, %5
  %.0 = phi ptr [ %7, %5 ], [ null, %1 ]
  ret ptr %.0
}